target datalayout = "e-m:e-p270:32:32-p271:32:32-p272:64:64-i64:64-i128:128-f80:128-n8:16:32:64-S128"
target triple = "x86_64-pc-linux-gnu"

%struct._value_string = type { i32, ptr }
%struct.expert_field = type { i32, i32 }

@hf_pn_io_mau_type_mode = internal global i32 0, align 4
@pn_io_mau_type_mode = internal constant [3 x %struct._value_string] [%struct._value_string { i32 0, ptr @.str.2662 }, %struct._value_string { i32 1, ptr @.str.2663 }, %struct._value_string zeroinitializer], align 16
@ei_pn_io_block_version = internal global %struct.expert_field zeroinitializer, align 4
@.str.1317 = private unnamed_addr constant [41 x i8] c"Block version %u.%u not implemented yet!\00", align 1
@.str.1370 = private unnamed_addr constant [5 x i8] c"0x%x\00", align 1
@.str.1571 = private unnamed_addr constant [17 x i8] c": MAUTypeMode:%s\00", align 1

; Function Attrs: nounwind uwtable
define internal i32 @dissect_CheckMAUTypeDifference_block(ptr noundef %0, i32 noundef %1, ptr noundef %2, ptr noundef %3, ptr noundef %4, ptr noundef %5, i8 noundef zeroext %6, i8 noundef zeroext %7) #0 {
  %9 = alloca i32, align 4
  %10 = alloca ptr, align 8
  %11 = alloca i32, align 4
  %12 = alloca ptr, align 8
  %13 = alloca ptr, align 8
  %14 = alloca ptr, align 8
  %15 = alloca ptr, align 8
  %16 = alloca i8, align 1
  %17 = alloca i8, align 1
  %18 = alloca i16, align 2
  store ptr %0, ptr %10, align 8
  store i32 %1, ptr %11, align 4
  store ptr %2, ptr %12, align 8
  store ptr %3, ptr %13, align 8
  store ptr %4, ptr %14, align 8
  store ptr %5, ptr %15, align 8
  store i8 %6, ptr %16, align 1
  store i8 %7, ptr %17, align 1
  %19 = load i8, ptr %16, align 1
  %20 = zext i8 %19 to i32
  %21 = icmp ne i32 %20, 1
  br i1 %21, label %26, label %22

22:                                               ; preds = %8
  %23 = load i8, ptr %17, align 1
  %24 = zext i8 %23 to i32
  %25 = icmp ne i32 %24, 0
  br i1 %25, label %26, label %35

26:                                               ; preds = %22, %8
  %27 = load ptr, ptr %12, align 8
  %28 = load ptr, ptr %14, align 8
  %29 = load i8, ptr %16, align 1
  %30 = zext i8 %29 to i32
  %31 = load i8, ptr %17, align 1
  %32 = zext i8 %31 to i32
  %33 = call ptr (ptr, ptr, ptr, ptr, ...) @expert_add_info_format(ptr noundef %27, ptr noundef %28, ptr noundef @ei_pn_io_block_version, ptr noundef @.str.1317, i32 noundef %30, i32 noundef %32)
  %34 = load i32, ptr %11, align 4
  store i32 %34, ptr %9, align 4
  br label %48

35:                                               ; preds = %22
  %36 = load ptr, ptr %10, align 8
  %37 = load i32, ptr %11, align 4
  %38 = load ptr, ptr %12, align 8
  %39 = load ptr, ptr %13, align 8
  %40 = load ptr, ptr %15, align 8
  %41 = load i32, ptr @hf_pn_io_mau_type_mode, align 4
  %42 = call i32 @dissect_dcerpc_uint16(ptr noundef %36, i32 noundef %37, ptr noundef %38, ptr noundef %39, ptr noundef %40, i32 noundef %41, ptr noundef %18)
  store i32 %42, ptr %11, align 4
  %43 = load ptr, ptr %14, align 8
  %44 = load i16, ptr %18, align 2
  %45 = zext i16 %44 to i32
  %46 = call ptr @val_to_str(i32 noundef %45, ptr noundef @pn_io_mau_type_mode, ptr noundef @.str.1370)
  call void (ptr, ptr, ...) @proto_item_append_text(ptr noundef %43, ptr noundef @.str.1571, ptr noundef %46)
  %47 = load i32, ptr %11, align 4
  store i32 %47, ptr %9, align 4
  br label %48

48:                                               ; preds = %35, %26
  %49 = load i32, ptr %9, align 4
  ret i32 %49
}