; Function Attrs: nounwind uwtable
define internal fastcc void @dissect_CheckMAUTypeDifference_block(ptr noundef %0, i32 noundef %1, ptr noundef %2, ptr noundef %3, ptr noundef %4, ptr noundef %5, i8 noundef zeroext %6, i8 noundef zeroext %7) unnamed_addr #0 {
  %9 = alloca i16, align 2
  %10 = icmp ne i8 %6, 1
  %11 = icmp ne i8 %7, 0
  %or.cond = or i1 %10, %11
  br i1 %or.cond, label %12, label %16

12:                                               ; preds = %8
  %13 = zext i8 %7 to i32
  %14 = zext i8 %6 to i32
  %15 = tail call ptr (ptr, ptr, ptr, ptr, ...) @expert_add_info_format(ptr noundef %2, ptr noundef %4, ptr noundef nonnull @ei_pn_io_block_version, ptr noundef nonnull @.str.1317, i32 noundef %14, i32 noundef %13) #11
  br label %22

16:                                               ; preds = %8
  %17 = load i32, ptr @hf_pn_io_mau_type_mode, align 4
  %18 = call i32 @dissect_dcerpc_uint16(ptr noundef %0, i32 noundef %1, ptr noundef %2, ptr noundef %3, ptr noundef %5, i32 noundef %17, ptr noundef nonnull %9) #11
  %19 = load i16, ptr %9, align 2
  %20 = zext i16 %19 to i32
  %21 = call ptr @val_to_str(i32 noundef %20, ptr noundef nonnull @pn_io_mau_type_mode, ptr noundef nonnull @.str.1370) #11
  call void (ptr, ptr, ...) @proto_item_append_text(ptr noundef %4, ptr noundef nonnull @.str.1571, ptr noundef %21) #11
  br label %22

22:                                               ; preds = %16, %12
  ret void
}